; Function Attrs: nounwind sspstrong uwtable
define internal noundef i32 @ssl_npn_advertise_cb(ptr readnone captures(none) %0, ptr noundef writeonly captures(none) initializes((0, 8)) %1, ptr noundef writeonly captures(none) %2, ptr noundef %3) #0 {
  %5 = ptrtoint ptr %3 to i64
  %6 = load i64, ptr @id_npn_protocols_encoded, align 8, !tbaa !10
  %7 = tail call i64 @rb_attr_get(i64 noundef %5, i64 noundef %6) #9
  %8 = inttoptr i64 %7 to ptr
  %9 = load i64, ptr %8, align 8, !tbaa !18, !noalias !74
  %10 = and i64 %9, 8192
  %.not.i.i = icmp eq i64 %10, 0
  %11 = getelementptr inbounds nuw i8, ptr %8, i64 24
  br i1 %.not.i.i, label %RSTRING_PTR.exit, label %12

12:                                               ; preds = %4
  %.sroa.2.0.copyload.i = load ptr, ptr %11, align 8
  br label %RSTRING_PTR.exit

RSTRING_PTR.exit:                                 ; preds = %4, %12
  %.sroa.2.0.i = phi ptr [ %.sroa.2.0.copyload.i, %12 ], [ %11, %4 ]
  store ptr %.sroa.2.0.i, ptr %1, align 8, !tbaa !46
  %13 = getelementptr inbounds nuw i8, ptr %8, i64 16
  %14 = load i64, ptr %13, align 8, !tbaa !37
  %15 = add i64 %14, 2147483648
  %.not.i.i4 = icmp ult i64 %15, 4294967296
  br i1 %.not.i.i4, label %RSTRING_LENINT.exit, label %16

16:                                               ; preds = %RSTRING_PTR.exit
  tail call void @rb_out_of_int(i64 noundef %14) #11
  unreachable

RSTRING_LENINT.exit:                              ; preds = %RSTRING_PTR.exit
  %17 = trunc i64 %14 to i32
  store i32 %17, ptr %2, align 4, !tbaa !6
  ret i32 0
}